target datalayout = "e-m:e-p270:32:32-p271:32:32-p272:64:64-i64:64-i128:128-f80:128-n8:16:32:64-S128"
target triple = "x86_64-pc-linux-gnu"

%struct.TclStubs = type { i32, ptr, ptr, ptr, ptr, ptr, ptr, ptr, ptr, ptr, ptr, ptr, ptr, ptr, ptr, ptr, ptr, ptr, ptr, ptr, ptr, ptr, ptr, ptr, ptr, ptr, ptr, ptr, ptr, ptr, ptr, ptr, ptr, ptr, ptr, ptr, ptr, ptr, ptr, ptr, ptr, ptr, ptr, ptr, ptr, ptr, ptr, ptr, ptr, ptr, ptr, ptr, ptr, ptr, ptr, ptr, ptr, ptr, ptr, ptr, ptr, ptr, ptr, ptr, ptr, ptr, ptr, ptr, ptr, ptr, ptr, ptr, ptr, ptr, ptr, ptr, ptr, ptr, ptr, ptr, ptr, ptr, ptr, ptr, ptr, ptr, ptr, ptr, ptr, ptr, ptr, ptr, ptr, ptr, ptr, ptr, ptr, ptr, ptr, ptr, ptr, ptr, ptr, ptr, ptr, ptr, ptr, ptr, ptr, ptr, ptr, ptr, ptr, ptr, ptr, ptr, ptr, ptr, ptr, ptr, ptr, ptr, ptr, ptr, ptr, ptr, ptr, ptr, ptr, ptr, ptr, ptr, ptr, ptr, ptr, ptr, ptr, ptr, ptr, ptr, ptr, ptr, ptr, ptr, ptr, ptr, ptr, ptr, ptr, ptr, ptr, ptr, ptr, ptr, ptr, ptr, ptr, ptr, ptr, ptr, ptr, ptr, ptr, ptr, ptr, ptr, ptr, ptr, ptr, ptr, ptr, ptr, ptr, ptr, ptr, ptr, ptr, ptr, ptr, ptr, ptr, ptr, ptr, ptr, ptr, ptr, ptr, ptr, ptr, ptr, ptr, ptr, ptr, ptr, ptr, ptr, ptr, ptr, ptr, ptr, ptr, ptr, ptr, ptr, ptr, ptr, ptr, ptr, ptr, ptr, ptr, ptr, ptr, ptr, ptr, ptr, ptr, ptr, ptr, ptr, ptr, ptr, ptr, ptr, ptr, ptr, ptr, ptr, ptr, ptr, ptr, ptr, ptr, ptr, ptr, ptr, ptr, ptr, ptr, ptr, ptr, ptr, ptr, ptr, ptr, ptr, ptr, ptr, ptr, ptr, ptr, ptr, ptr, ptr, ptr, ptr, ptr, ptr, ptr, ptr, ptr, ptr, ptr, ptr, ptr, ptr, ptr, ptr, ptr, ptr, ptr, ptr, ptr, ptr, ptr, ptr, ptr, ptr, ptr, ptr, ptr, ptr, ptr, ptr, ptr, ptr, ptr, ptr, ptr, ptr, ptr, ptr, ptr, ptr, ptr, ptr, ptr, ptr, ptr, ptr, ptr, ptr, ptr, ptr, ptr, ptr, ptr, ptr, ptr, ptr, ptr, ptr, ptr, ptr, ptr, ptr, ptr, ptr, ptr, ptr, ptr, ptr, ptr, ptr, ptr, ptr, ptr, ptr, ptr, ptr, ptr, ptr, ptr, ptr, ptr, ptr, ptr, ptr, ptr, ptr, ptr, ptr, ptr, ptr, ptr, ptr, ptr, ptr, ptr, ptr, ptr, ptr, ptr, ptr, ptr, ptr, ptr, ptr, ptr, ptr, ptr, ptr, ptr, ptr, ptr, ptr, ptr, ptr, ptr, ptr, ptr, ptr, ptr, ptr, ptr, ptr, ptr, ptr, ptr, ptr, ptr, ptr, ptr, ptr, ptr, ptr, ptr, ptr, ptr, ptr, ptr, ptr, ptr, ptr, ptr, ptr, ptr, ptr, ptr, ptr, ptr, ptr, ptr, ptr, ptr, ptr, ptr, ptr, ptr, ptr, ptr, ptr, ptr, ptr, ptr, ptr, ptr, ptr, ptr, ptr, ptr, ptr, ptr, ptr, ptr, ptr, ptr, ptr, ptr, ptr, ptr, ptr, ptr, ptr, ptr, ptr, ptr, ptr, ptr, ptr, ptr, ptr, ptr, ptr, ptr, ptr, ptr, ptr, ptr, ptr, ptr, ptr, ptr, ptr, ptr, ptr, ptr, ptr, ptr, ptr, ptr, ptr, ptr, ptr, ptr, ptr, ptr, ptr, ptr, ptr, ptr, ptr, ptr, ptr, ptr, ptr, ptr, ptr, ptr, ptr, ptr, ptr, ptr, ptr, ptr, ptr, ptr, ptr, ptr, ptr, ptr, ptr, ptr, ptr, ptr, ptr, ptr, ptr, ptr, ptr, ptr, ptr, ptr, ptr, ptr, ptr, ptr, ptr, ptr, ptr, ptr, ptr, ptr, ptr, ptr, ptr, ptr, ptr, ptr, ptr, ptr, ptr, ptr, ptr, ptr, ptr, ptr, ptr, ptr, ptr, ptr, ptr, ptr, ptr, ptr, ptr, ptr, ptr, ptr, ptr, ptr, ptr, ptr, ptr, ptr, ptr, ptr, ptr, ptr, ptr, ptr, ptr, ptr, ptr, ptr, ptr, ptr, ptr, ptr, ptr, ptr, ptr, ptr, ptr, ptr, ptr, ptr, ptr, ptr, ptr, ptr, ptr, ptr, ptr, ptr, ptr, ptr, ptr, ptr, ptr, ptr, ptr, ptr, ptr, ptr, ptr, ptr, ptr, ptr, ptr, ptr, ptr, ptr, ptr, ptr, ptr, ptr, ptr, ptr, ptr, ptr, ptr, ptr, ptr, ptr, ptr, ptr, ptr, ptr, ptr, ptr, ptr, ptr, ptr, ptr, ptr, ptr, ptr, ptr, ptr, ptr, ptr, ptr, ptr, ptr, ptr, ptr, ptr, ptr, ptr, ptr, ptr, ptr, ptr, ptr, ptr, ptr, ptr, ptr, ptr, ptr, ptr, ptr, ptr, ptr, ptr, ptr, ptr, ptr, ptr, ptr, ptr, ptr, ptr, ptr, ptr, ptr, ptr, ptr, ptr, ptr, ptr, ptr }
%struct.SqliteDb = type { ptr, ptr, ptr, ptr, ptr, ptr, ptr, ptr, ptr, ptr, i32, ptr, ptr, ptr, ptr, ptr, ptr, ptr, ptr, i32, ptr, ptr, ptr, i32, i32, ptr, i32, i32, i32, i32, i32, i32, i32 }
%struct.Tcl_Obj = type { i32, ptr, i32, ptr, %union.anon }
%union.anon = type { %struct.anon }
%struct.anon = type { ptr, ptr }

@tclStubsPtr = external global ptr, align 8

; Function Attrs: nounwind uwtable
define internal void @DbHookCmd(ptr noundef %0, ptr noundef %1, ptr noundef %2, ptr noundef %3) #0 {
  %5 = alloca ptr, align 8
  %6 = alloca ptr, align 8
  %7 = alloca ptr, align 8
  %8 = alloca ptr, align 8
  %9 = alloca ptr, align 8
  %10 = alloca ptr, align 8
  store ptr %0, ptr %5, align 8, !tbaa !3
  store ptr %1, ptr %6, align 8, !tbaa !30
  store ptr %2, ptr %7, align 8, !tbaa !21
  store ptr %3, ptr %8, align 8, !tbaa !16
  call void @llvm.lifetime.start.p0(i64 8, ptr %9) #10
  %11 = load ptr, ptr %6, align 8, !tbaa !30
  %12 = getelementptr inbounds nuw %struct.SqliteDb, ptr %11, i32 0, i32 0
  %13 = load ptr, ptr %12, align 8, !tbaa !34
  store ptr %13, ptr %9, align 8, !tbaa !53
  %14 = load ptr, ptr %8, align 8, !tbaa !16
  %15 = load ptr, ptr %14, align 8, !tbaa !21
  %16 = icmp ne ptr %15, null
  br i1 %16, label %17, label %45

17:                                               ; preds = %4
  %18 = load ptr, ptr @tclStubsPtr, align 8, !tbaa !10
  %19 = getelementptr inbounds nuw %struct.TclStubs, ptr %18, i32 0, i32 237
  %20 = load ptr, ptr %19, align 8, !tbaa !86
  %21 = load ptr, ptr %5, align 8, !tbaa !3
  %22 = load ptr, ptr %8, align 8, !tbaa !16
  %23 = load ptr, ptr %22, align 8, !tbaa !21
  call void %20(ptr noundef %21, ptr noundef %23)
  %24 = load ptr, ptr %7, align 8, !tbaa !21
  %25 = icmp ne ptr %24, null
  br i1 %25, label %26, label %44

26:                                               ; preds = %17
  br label %27

27:                                               ; preds = %26
  call void @llvm.lifetime.start.p0(i64 8, ptr %10) #10
  %28 = load ptr, ptr %8, align 8, !tbaa !16
  %29 = load ptr, ptr %28, align 8, !tbaa !21
  store ptr %29, ptr %10, align 8, !tbaa !21
  %30 = load ptr, ptr %10, align 8, !tbaa !21
  %31 = getelementptr inbounds nuw %struct.Tcl_Obj, ptr %30, i32 0, i32 0
  %32 = load i32, ptr %31, align 8, !tbaa !70
  %33 = add nsw i32 %32, -1
  store i32 %33, ptr %31, align 8, !tbaa !70
  %34 = icmp sle i32 %32, 1
  br i1 %34, label %35, label %40

35:                                               ; preds = %27
  %36 = load ptr, ptr @tclStubsPtr, align 8, !tbaa !10
  %37 = getelementptr inbounds nuw %struct.TclStubs, ptr %36, i32 0, i32 32
  %38 = load ptr, ptr %37, align 8, !tbaa !73
  %39 = load ptr, ptr %10, align 8, !tbaa !21
  call void %38(ptr noundef %39)
  br label %40

40:                                               ; preds = %35, %27
  call void @llvm.lifetime.end.p0(i64 8, ptr %10) #10
  br label %41

41:                                               ; preds = %40
  br label %42

42:                                               ; preds = %41
  %43 = load ptr, ptr %8, align 8, !tbaa !16
  store ptr null, ptr %43, align 8, !tbaa !21
  br label %44

44:                                               ; preds = %42, %17
  br label %45

45:                                               ; preds = %44, %4
  %46 = load ptr, ptr %7, align 8, !tbaa !21
  %47 = icmp ne ptr %46, null
  br i1 %47, label %48, label %66

48:                                               ; preds = %45
  %49 = load ptr, ptr @tclStubsPtr, align 8, !tbaa !10
  %50 = getelementptr inbounds nuw %struct.TclStubs, ptr %49, i32 0, i32 342
  %51 = load ptr, ptr %50, align 8, !tbaa !25
  %52 = load ptr, ptr %7, align 8, !tbaa !21
  %53 = call ptr %51(ptr noundef %52)
  %54 = getelementptr inbounds i8, ptr %53, i64 0
  %55 = load i8, ptr %54, align 1, !tbaa !24
  %56 = icmp ne i8 %55, 0
  br i1 %56, label %57, label %65

57:                                               ; preds = %48
  %58 = load ptr, ptr %7, align 8, !tbaa !21
  %59 = load ptr, ptr %8, align 8, !tbaa !16
  store ptr %58, ptr %59, align 8, !tbaa !21
  %60 = load ptr, ptr %8, align 8, !tbaa !16
  %61 = load ptr, ptr %60, align 8, !tbaa !21
  %62 = getelementptr inbounds nuw %struct.Tcl_Obj, ptr %61, i32 0, i32 0
  %63 = load i32, ptr %62, align 8, !tbaa !70
  %64 = add nsw i32 %63, 1
  store i32 %64, ptr %62, align 8, !tbaa !70
  br label %65

65:                                               ; preds = %57, %48
  br label %66

66:                                               ; preds = %65, %45
  %67 = load ptr, ptr %9, align 8, !tbaa !53
  %68 = load ptr, ptr %6, align 8, !tbaa !30
  %69 = getelementptr inbounds nuw %struct.SqliteDb, ptr %68, i32 0, i32 13
  %70 = load ptr, ptr %69, align 8, !tbaa !213
  %71 = icmp ne ptr %70, null
  %72 = select i1 %71, ptr @DbUpdateHandler, ptr null
  %73 = load ptr, ptr %6, align 8, !tbaa !30
  %74 = call ptr @sqlite3_update_hook(ptr noundef %67, ptr noundef %72, ptr noundef %73)
  %75 = load ptr, ptr %9, align 8, !tbaa !53
  %76 = load ptr, ptr %6, align 8, !tbaa !30
  %77 = getelementptr inbounds nuw %struct.SqliteDb, ptr %76, i32 0, i32 15
  %78 = load ptr, ptr %77, align 8, !tbaa !214
  %79 = icmp ne ptr %78, null
  %80 = select i1 %79, ptr @DbRollbackHandler, ptr null
  %81 = load ptr, ptr %6, align 8, !tbaa !30
  %82 = call ptr @sqlite3_rollback_hook(ptr noundef %75, ptr noundef %80, ptr noundef %81)
  %83 = load ptr, ptr %9, align 8, !tbaa !53
  %84 = load ptr, ptr %6, align 8, !tbaa !30
  %85 = getelementptr inbounds nuw %struct.SqliteDb, ptr %84, i32 0, i32 16
  %86 = load ptr, ptr %85, align 8, !tbaa !215
  %87 = icmp ne ptr %86, null
  %88 = select i1 %87, ptr @DbWalHandler, ptr null
  %89 = load ptr, ptr %6, align 8, !tbaa !30
  %90 = call ptr @sqlite3_wal_hook(ptr noundef %83, ptr noundef %88, ptr noundef %89)
  call void @llvm.lifetime.end.p0(i64 8, ptr %9) #10
  ret void
}