; Function Attrs: nounwind uwtable
define internal fastcc void @DbHookCmd(ptr noundef %0, ptr noundef %1, ptr noundef %2, ptr noundef captures(none) %3) unnamed_addr #0 {
  %5 = load ptr, ptr %1, align 8, !tbaa !26
  %6 = load ptr, ptr %3, align 8, !tbaa !15
  %.not = icmp eq ptr %6, null
  br i1 %.not, label %20, label %7

7:                                                ; preds = %4
  %8 = load ptr, ptr @tclStubsPtr, align 8, !tbaa !3
  %9 = getelementptr inbounds nuw i8, ptr %8, i64 1896
  %10 = load ptr, ptr %9, align 8, !tbaa !77
  tail call void %10(ptr noundef %0, ptr noundef nonnull %6) #14
  %cond = icmp eq ptr %2, null
  br i1 %cond, label %30, label %11

11:                                               ; preds = %7
  %12 = load ptr, ptr %3, align 8, !tbaa !15
  %13 = load i32, ptr %12, align 8, !tbaa !61
  %14 = add nsw i32 %13, -1
  store i32 %14, ptr %12, align 8, !tbaa !61
  %15 = icmp slt i32 %13, 2
  br i1 %15, label %16, label %.thread

16:                                               ; preds = %11
  %17 = load ptr, ptr @tclStubsPtr, align 8, !tbaa !3
  %18 = getelementptr inbounds nuw i8, ptr %17, i64 256
  %19 = load ptr, ptr %18, align 8, !tbaa !64
  tail call void %19(ptr noundef nonnull %12) #14
  br label %.thread

.thread:                                          ; preds = %11, %16
  store ptr null, ptr %3, align 8, !tbaa !15
  br label %21

20:                                               ; preds = %4
  %.not25 = icmp eq ptr %2, null
  br i1 %.not25, label %30, label %21

21:                                               ; preds = %.thread, %20
  %22 = load ptr, ptr @tclStubsPtr, align 8, !tbaa !3
  %23 = getelementptr inbounds nuw i8, ptr %22, i64 2736
  %24 = load ptr, ptr %23, align 8, !tbaa !19
  %25 = tail call ptr %24(ptr noundef nonnull %2) #14
  %26 = load i8, ptr %25, align 1, !tbaa !18
  %.not26 = icmp eq i8 %26, 0
  br i1 %.not26, label %30, label %27

27:                                               ; preds = %21
  store ptr %2, ptr %3, align 8, !tbaa !15
  %28 = load i32, ptr %2, align 8, !tbaa !61
  %29 = add nsw i32 %28, 1
  store i32 %29, ptr %2, align 8, !tbaa !61
  br label %30

30:                                               ; preds = %7, %21, %27, %20
  %31 = getelementptr inbounds nuw i8, ptr %1, i64 104
  %32 = load ptr, ptr %31, align 8, !tbaa !201
  %.not27 = icmp eq ptr %32, null
  %33 = select i1 %.not27, ptr null, ptr @DbUpdateHandler
  %34 = tail call ptr @sqlite3_update_hook(ptr noundef %5, ptr noundef %33, ptr noundef nonnull %1) #14
  %35 = getelementptr inbounds nuw i8, ptr %1, i64 120
  %36 = load ptr, ptr %35, align 8, !tbaa !202
  %.not28 = icmp eq ptr %36, null
  %37 = select i1 %.not28, ptr null, ptr @DbRollbackHandler
  %38 = tail call ptr @sqlite3_rollback_hook(ptr noundef %5, ptr noundef %37, ptr noundef nonnull %1) #14
  %39 = getelementptr inbounds nuw i8, ptr %1, i64 128
  %40 = load ptr, ptr %39, align 8, !tbaa !203
  %.not29 = icmp eq ptr %40, null
  %41 = select i1 %.not29, ptr null, ptr @DbWalHandler
  %42 = tail call ptr @sqlite3_wal_hook(ptr noundef %5, ptr noundef %41, ptr noundef nonnull %1) #14
  ret void
}